; Function Attrs: mustprogress uwtable
define void @_ZN2cv3Mat8copySizeERKS0_(ptr noundef nonnull align 8 dereferenceable(96) %0, ptr noundef nonnull readonly align 8 captures(none) dereferenceable(96) %1) local_unnamed_addr #1 align 2 {
  %3 = getelementptr inbounds nuw i8, ptr %1, i64 4
  %4 = load i32, ptr %3, align 4, !tbaa !53
  tail call void @_ZN2cv7setSizeERNS_3MatEiPKiPKmb(ptr noundef nonnull align 8 dereferenceable(96) %0, i32 noundef %4, ptr noundef null, ptr noundef null, i1 noundef zeroext false)
  %5 = getelementptr inbounds nuw i8, ptr %0, i64 4
  %6 = load i32, ptr %5, align 4, !tbaa !53
  %7 = icmp sgt i32 %6, 0
  br i1 %7, label %.lr.ph, label %._crit_edge

.lr.ph:                                           ; preds = %2
  %8 = getelementptr inbounds nuw i8, ptr %1, i64 64
  %9 = load ptr, ptr %8, align 8, !tbaa !49
  %10 = getelementptr inbounds nuw i8, ptr %0, i64 64
  %11 = load ptr, ptr %10, align 8, !tbaa !49
  %12 = getelementptr inbounds nuw i8, ptr %1, i64 72
  %13 = load ptr, ptr %12, align 8, !tbaa !63
  %14 = getelementptr inbounds nuw i8, ptr %0, i64 72
  %15 = load ptr, ptr %14, align 8, !tbaa !63
  br label %16

._crit_edge:                                      ; preds = %16, %2
  ret void

16:                                               ; preds = %.lr.ph, %16
  %indvars.iv = phi i64 [ 0, %.lr.ph ], [ %indvars.iv.next, %16 ]
  %17 = getelementptr inbounds nuw i32, ptr %9, i64 %indvars.iv
  %18 = load i32, ptr %17, align 4, !tbaa !23
  %19 = getelementptr inbounds nuw i32, ptr %11, i64 %indvars.iv
  store i32 %18, ptr %19, align 4, !tbaa !23
  %20 = getelementptr inbounds nuw i64, ptr %13, i64 %indvars.iv
  %21 = load i64, ptr %20, align 8, !tbaa !22
  %22 = getelementptr inbounds nuw i64, ptr %15, i64 %indvars.iv
  store i64 %21, ptr %22, align 8, !tbaa !22
  %indvars.iv.next = add nuw nsw i64 %indvars.iv, 1
  %23 = load i32, ptr %5, align 4, !tbaa !53
  %24 = sext i32 %23 to i64
  %25 = icmp slt i64 %indvars.iv.next, %24
  br i1 %25, label %16, label %._crit_edge, !llvm.loop !78
}